; Function Attrs: nounwind uwtable
define void @Sle_ManComputeCutsTest(ptr noundef readonly captures(none) %0) local_unnamed_addr #0 {
  %2 = tail call ptr @Sle_ManComputeCuts(ptr noundef %0, i32 noundef 4, i32 noundef 1)
  %3 = getelementptr inbounds nuw i8, ptr %2, i64 8
  %4 = load ptr, ptr %3, align 8, !tbaa !28
  %.not.i = icmp eq ptr %4, null
  br i1 %.not.i, label %Vec_IntFree.exit, label %5

5:                                                ; preds = %1
  tail call void @free(ptr noundef nonnull %4) #22
  br label %Vec_IntFree.exit

Vec_IntFree.exit:                                 ; preds = %1, %5
  tail call void @free(ptr noundef nonnull %2) #22
  ret void
}